target datalayout = "e-m:e-p270:32:32-p271:32:32-p272:64:64-i64:64-i128:128-f80:128-n8:16:32:64-S128"
target triple = "x86_64-pc-linux-gnu"

@.str.2 = private unnamed_addr constant [9 x i8] c"%a %x %X\00", align 1
@.str.6 = private unnamed_addr constant [9 x i8] c"%s%s%03d\00", align 1
@.str.7 = private unnamed_addr constant [2 x i8] c".\00", align 1

; Function Attrs: nounwind uwtable
define internal ptr @_datetime_append_msec(ptr noundef %0, ptr noundef %1) #0 {
  %3 = alloca ptr, align 8
  %4 = alloca ptr, align 8
  store ptr %0, ptr %3, align 8, !tbaa !60
  store ptr %1, ptr %4, align 8, !tbaa !51
  %5 = load ptr, ptr %3, align 8, !tbaa !60
  %6 = load ptr, ptr %4, align 8, !tbaa !51
  %7 = call i32 @g_date_time_get_microsecond(ptr noundef %6)
  %8 = sitofp i32 %7 to double
  %9 = fmul reassoc nsz arcp contract afn double %8, 1.000000e-03
  %10 = fptosi double %9 to i32
  %11 = call noalias ptr (ptr, ...) @g_strdup_printf(ptr noundef @.str.6, ptr noundef %5, ptr noundef @.str.7, i32 noundef %10)
  ret ptr %11
}

; Function Attrs: nounwind uwtable
define i32 @dt_datetime_gdatetime_to_local(ptr noundef %0, i64 noundef %1, ptr noundef %2, i32 noundef %3, i32 noundef %4) #0 {
  %6 = alloca i32, align 4
  %7 = alloca ptr, align 8
  %8 = alloca i64, align 8
  %9 = alloca ptr, align 8
  %10 = alloca i32, align 4
  %11 = alloca i32, align 4
  %12 = alloca ptr, align 8
  %13 = alloca ptr, align 8
  %14 = alloca ptr, align 8
  %15 = alloca i32, align 4
  store ptr %0, ptr %7, align 8, !tbaa !60
  store i64 %1, ptr %8, align 8, !tbaa !67
  store ptr %2, ptr %9, align 8, !tbaa !51
  store i32 %3, ptr %10, align 4, !tbaa !62
  store i32 %4, ptr %11, align 4, !tbaa !62
  %16 = load ptr, ptr %7, align 8, !tbaa !60
  %17 = icmp ne ptr %16, null
  br i1 %17, label %18, label %24

18:                                               ; preds = %5
  %19 = load i64, ptr %8, align 8, !tbaa !67
  %20 = icmp ne i64 %19, 0
  br i1 %20, label %21, label %24

21:                                               ; preds = %18
  %22 = load ptr, ptr %9, align 8, !tbaa !51
  %23 = icmp ne ptr %22, null
  br i1 %23, label %25, label %24

24:                                               ; preds = %21, %18, %5
  store i32 0, ptr %6, align 4
  br label %65

25:                                               ; preds = %21
  %26 = load ptr, ptr %7, align 8, !tbaa !60
  %27 = getelementptr inbounds i8, ptr %26, i64 0
  store i8 0, ptr %27, align 1, !tbaa !61
  %28 = load ptr, ptr %9, align 8, !tbaa !51
  %29 = icmp ne ptr %28, null
  br i1 %29, label %30, label %64

30:                                               ; preds = %25
  call void @llvm.lifetime.start.p0(i64 8, ptr %12) #7
  %31 = load i32, ptr %11, align 4, !tbaa !62
  %32 = icmp ne i32 %31, 0
  br i1 %32, label %33, label %39

33:                                               ; preds = %30
  call void @llvm.lifetime.start.p0(i64 8, ptr %13) #7
  %34 = load ptr, ptr %9, align 8, !tbaa !51
  %35 = call ptr @g_date_time_to_local(ptr noundef %34)
  store ptr %35, ptr %13, align 8, !tbaa !51
  %36 = load ptr, ptr %13, align 8, !tbaa !51
  %37 = call noalias ptr @g_date_time_format(ptr noundef %36, ptr noundef @.str.2)
  store ptr %37, ptr %12, align 8, !tbaa !60
  %38 = load ptr, ptr %13, align 8, !tbaa !51
  call void @g_date_time_unref(ptr noundef %38)
  call void @llvm.lifetime.end.p0(i64 8, ptr %13) #7
  br label %42

39:                                               ; preds = %30
  %40 = load ptr, ptr %9, align 8, !tbaa !51
  %41 = call noalias ptr @g_date_time_format(ptr noundef %40, ptr noundef @.str.2)
  store ptr %41, ptr %12, align 8, !tbaa !60
  br label %42

42:                                               ; preds = %39, %33
  %43 = load ptr, ptr %12, align 8, !tbaa !60
  %44 = icmp ne ptr %43, null
  br i1 %44, label %45, label %60

45:                                               ; preds = %42
  %46 = load i32, ptr %10, align 4, !tbaa !62
  %47 = icmp ne i32 %46, 0
  br i1 %47, label %48, label %54

48:                                               ; preds = %45
  call void @llvm.lifetime.start.p0(i64 8, ptr %14) #7
  %49 = load ptr, ptr %12, align 8, !tbaa !60
  %50 = load ptr, ptr %9, align 8, !tbaa !51
  %51 = call ptr @_datetime_append_msec(ptr noundef %49, ptr noundef %50)
  store ptr %51, ptr %14, align 8, !tbaa !60
  %52 = load ptr, ptr %12, align 8, !tbaa !60
  call void @g_free(ptr noundef %52)
  %53 = load ptr, ptr %14, align 8, !tbaa !60
  store ptr %53, ptr %12, align 8, !tbaa !60
  call void @llvm.lifetime.end.p0(i64 8, ptr %14) #7
  br label %54

54:                                               ; preds = %48, %45
  %55 = load ptr, ptr %7, align 8, !tbaa !60
  %56 = load ptr, ptr %12, align 8, !tbaa !60
  %57 = load i64, ptr %8, align 8, !tbaa !67
  %58 = call i64 @g_strlcpy(ptr noundef %55, ptr noundef %56, i64 noundef %57)
  %59 = load ptr, ptr %12, align 8, !tbaa !60
  call void @g_free(ptr noundef %59)
  store i32 1, ptr %6, align 4
  store i32 1, ptr %15, align 4
  br label %61

60:                                               ; preds = %42
  store i32 0, ptr %15, align 4
  br label %61

61:                                               ; preds = %60, %54
  call void @llvm.lifetime.end.p0(i64 8, ptr %12) #7
  %62 = load i32, ptr %15, align 4
  switch i32 %62, label %67 [
    i32 0, label %63
    i32 1, label %65
  ]

63:                                               ; preds = %61
  br label %64

64:                                               ; preds = %63, %25
  store i32 0, ptr %6, align 4
  br label %65

65:                                               ; preds = %64, %61, %24
  %66 = load i32, ptr %6, align 4
  ret i32 %66

67:                                               ; preds = %61
  unreachable
}