; Function Attrs: nounwind uwtable
define range(i32 0, 2) i32 @dt_datetime_gdatetime_to_local(ptr noundef %0, i64 noundef %1, ptr noundef %2, i32 noundef %3, i32 noundef %4) local_unnamed_addr #0 {
  %6 = icmp ne ptr %0, null
  %7 = icmp ne i64 %1, 0
  %or.cond = and i1 %6, %7
  %8 = icmp ne ptr %2, null
  %or.cond3 = and i1 %or.cond, %8
  br i1 %or.cond3, label %9, label %26

9:                                                ; preds = %5
  store i8 0, ptr %0, align 1, !tbaa !57
  %.not = icmp eq i32 %4, 0
  br i1 %.not, label %13, label %10

10:                                               ; preds = %9
  %11 = tail call ptr @g_date_time_to_local(ptr noundef nonnull %2) #7
  %12 = tail call noalias ptr @g_date_time_format(ptr noundef %11, ptr noundef nonnull @.str.2) #7
  tail call void @g_date_time_unref(ptr noundef %11) #7
  br label %15

13:                                               ; preds = %9
  %14 = tail call noalias ptr @g_date_time_format(ptr noundef nonnull %2, ptr noundef nonnull @.str.2) #7
  br label %15

15:                                               ; preds = %13, %10
  %.025 = phi ptr [ %12, %10 ], [ %14, %13 ]
  %.not30.not = icmp ne ptr %.025, null
  br i1 %.not30.not, label %16, label %25

16:                                               ; preds = %15
  %.not31 = icmp eq i32 %3, 0
  br i1 %.not31, label %23, label %17

17:                                               ; preds = %16
  %18 = tail call i32 @g_date_time_get_microsecond(ptr noundef nonnull %2) #7
  %19 = sitofp i32 %18 to double
  %20 = fmul reassoc nsz arcp contract afn double %19, 1.000000e-03
  %21 = fptosi double %20 to i32
  %22 = tail call noalias ptr (ptr, ...) @g_strdup_printf(ptr noundef nonnull @.str.6, ptr noundef nonnull %.025, ptr noundef nonnull @.str.7, i32 noundef %21) #7
  tail call void @g_free(ptr noundef nonnull %.025) #7
  br label %23

23:                                               ; preds = %17, %16
  %.126 = phi ptr [ %22, %17 ], [ %.025, %16 ]
  %24 = tail call i64 @g_strlcpy(ptr noundef nonnull %0, ptr noundef %.126, i64 noundef %1) #7
  tail call void @g_free(ptr noundef %.126) #7
  br label %25

25:                                               ; preds = %15, %23
  %spec.select = zext i1 %.not30.not to i32
  br label %26

26:                                               ; preds = %25, %5
  %.024 = phi i32 [ 0, %5 ], [ %spec.select, %25 ]
  ret i32 %.024
}